target datalayout = "e-m:e-p270:32:32-p271:32:32-p272:64:64-i64:64-i128:128-f80:128-n8:16:32:64-S128"
target triple = "x86_64-pc-linux-gnu"

%struct._packet_info = type { ptr, ptr, i32, i32, %struct.nstime_t, %struct.nstime_t, %struct.nstime_t, i8, ptr, ptr, ptr, ptr, %struct._address, %struct._address, %struct._address, %struct._address, %struct._address, %struct._address, i32, ptr, i8, [3 x i8], %struct.anon, i32, i32, i32, i32, ptr, i8, ptr, ptr, i16, i16, i32, i32, i16, i32, i32, ptr, ptr, ptr, i8, i8, i16, i16, i16, i32, i16, i16, ptr, ptr, ptr, ptr, ptr, i32, i32 }
%struct.nstime_t = type { i64, i32 }
%struct._address = type { i32, i32, ptr, ptr }
%struct.anon = type { i8, [3 x i8] }
%struct._frame_data = type <{ i32, i32, i32, i32, i32, [4 x i8], i64, ptr, ptr, ptr, i8, i16, [5 x i8], %struct.nstime_t, %struct.nstime_t, i32, i32 }>
%struct._control_proc_info_t = type { [5 x i32], i8, i32, i32, i16 }

; Function Attrs: nounwind null_pointer_is_valid sspstrong uwtable
define internal zeroext i1 @control_proc_is_complete(i32 noundef %0, ptr noundef %1) #3 {
  %3 = alloca i1, align 1
  %4 = alloca i32, align 4
  %5 = alloca ptr, align 8
  store i32 %0, ptr %4, align 4
  store ptr %1, ptr %5, align 8
  %6 = load ptr, ptr %5, align 8
  %7 = getelementptr inbounds nuw %struct._control_proc_info_t, ptr %6, i32 0, i32 2
  %8 = load i32, ptr %7, align 4
  %9 = icmp ne i32 %8, 0
  br i1 %9, label %10, label %17

10:                                               ; preds = %2
  %11 = load i32, ptr %4, align 4
  %12 = load ptr, ptr %5, align 8
  %13 = getelementptr inbounds nuw %struct._control_proc_info_t, ptr %12, i32 0, i32 2
  %14 = load i32, ptr %13, align 4
  %15 = icmp ugt i32 %11, %14
  br i1 %15, label %16, label %17

16:                                               ; preds = %10
  store i1 true, ptr %3, align 1
  br label %18

17:                                               ; preds = %10, %2
  store i1 false, ptr %3, align 1
  br label %18

18:                                               ; preds = %17, %16
  %19 = load i1, ptr %3, align 1
  ret i1 %19
}

; Function Attrs: nounwind null_pointer_is_valid sspstrong uwtable
define internal zeroext i1 @control_proc_can_add_frame_even_if_complete(ptr noundef %0, ptr noundef %1, i8 noundef zeroext %2, i32 noundef %3) #3 {
  %5 = alloca i1, align 1
  %6 = alloca ptr, align 8
  %7 = alloca ptr, align 8
  %8 = alloca i8, align 1
  %9 = alloca i32, align 4
  store ptr %0, ptr %6, align 8
  store ptr %1, ptr %7, align 8
  store i8 %2, ptr %8, align 1
  store i32 %3, ptr %9, align 4
  %10 = load i32, ptr %9, align 4
  %11 = icmp eq i32 %10, 0
  br i1 %11, label %12, label %13

12:                                               ; preds = %4
  store i1 false, ptr %5, align 1
  br label %78

13:                                               ; preds = %4
  %14 = load ptr, ptr %7, align 8
  %15 = icmp ne ptr %14, null
  br i1 %15, label %17, label %16

16:                                               ; preds = %13
  store i1 false, ptr %5, align 1
  br label %78

17:                                               ; preds = %13
  %18 = load ptr, ptr %7, align 8
  %19 = getelementptr inbounds nuw %struct._control_proc_info_t, ptr %18, i32 0, i32 1
  %20 = load i8, ptr %19, align 4
  %21 = zext i8 %20 to i32
  %22 = load i8, ptr %8, align 1
  %23 = zext i8 %22 to i32
  %24 = icmp ne i32 %21, %23
  br i1 %24, label %25, label %26

25:                                               ; preds = %17
  store i1 false, ptr %5, align 1
  br label %78

26:                                               ; preds = %17
  %27 = load ptr, ptr %7, align 8
  %28 = getelementptr inbounds nuw %struct._control_proc_info_t, ptr %27, i32 0, i32 0
  %29 = load i32, ptr %9, align 4
  %30 = sub i32 %29, 1
  %31 = zext i32 %30 to i64
  %32 = getelementptr [5 x i32], ptr %28, i64 0, i64 %31
  %33 = load i32, ptr %32, align 4
  %34 = icmp eq i32 %33, 0
  br i1 %34, label %35, label %36

35:                                               ; preds = %26
  store i1 false, ptr %5, align 1
  br label %78

36:                                               ; preds = %26
  %37 = load ptr, ptr %6, align 8
  %38 = getelementptr inbounds nuw %struct._packet_info, ptr %37, i32 0, i32 8
  %39 = load ptr, ptr %38, align 8
  %40 = getelementptr inbounds nuw %struct._frame_data, ptr %39, i32 0, i32 11
  %41 = load i16, ptr %40, align 1
  %42 = lshr i16 %41, 3
  %43 = and i16 %42, 1
  %44 = zext i16 %43 to i32
  %45 = icmp ne i32 %44, 0
  br i1 %45, label %55, label %46

46:                                               ; preds = %36
  %47 = load ptr, ptr %7, align 8
  %48 = getelementptr inbounds nuw %struct._control_proc_info_t, ptr %47, i32 0, i32 0
  %49 = load i32, ptr %9, align 4
  %50 = zext i32 %49 to i64
  %51 = getelementptr [5 x i32], ptr %48, i64 0, i64 %50
  %52 = load i32, ptr %51, align 4
  %53 = icmp ne i32 %52, 0
  br i1 %53, label %54, label %55

54:                                               ; preds = %46
  store i1 false, ptr %5, align 1
  br label %78

55:                                               ; preds = %46, %36
  %56 = load ptr, ptr %6, align 8
  %57 = getelementptr inbounds nuw %struct._packet_info, ptr %56, i32 0, i32 8
  %58 = load ptr, ptr %57, align 8
  %59 = getelementptr inbounds nuw %struct._frame_data, ptr %58, i32 0, i32 11
  %60 = load i16, ptr %59, align 1
  %61 = lshr i16 %60, 3
  %62 = and i16 %61, 1
  %63 = zext i16 %62 to i32
  %64 = icmp ne i32 %63, 0
  br i1 %64, label %65, label %77

65:                                               ; preds = %55
  %66 = load ptr, ptr %7, align 8
  %67 = getelementptr inbounds nuw %struct._control_proc_info_t, ptr %66, i32 0, i32 0
  %68 = load i32, ptr %9, align 4
  %69 = zext i32 %68 to i64
  %70 = getelementptr [5 x i32], ptr %67, i64 0, i64 %69
  %71 = load i32, ptr %70, align 4
  %72 = load ptr, ptr %6, align 8
  %73 = getelementptr inbounds nuw %struct._packet_info, ptr %72, i32 0, i32 3
  %74 = load i32, ptr %73, align 4
  %75 = icmp ne i32 %71, %74
  br i1 %75, label %76, label %77

76:                                               ; preds = %65
  store i1 false, ptr %5, align 1
  br label %78

77:                                               ; preds = %65, %55
  store i1 true, ptr %5, align 1
  br label %78

78:                                               ; preds = %77, %76, %54, %35, %25, %16, %12
  %79 = load i1, ptr %5, align 1
  ret i1 %79
}

; Function Attrs: null_pointer_is_valid sspstrong uwtable
define internal zeroext i1 @control_proc_can_add_frame(ptr noundef %0, ptr noundef %1, i8 noundef zeroext %2, i32 noundef %3) #0 {
  %5 = alloca i1, align 1
  %6 = alloca ptr, align 8
  %7 = alloca ptr, align 8
  %8 = alloca i8, align 1
  %9 = alloca i32, align 4
  store ptr %0, ptr %6, align 8
  store ptr %1, ptr %7, align 8
  store i8 %2, ptr %8, align 1
  store i32 %3, ptr %9, align 4
  %10 = load ptr, ptr %6, align 8
  %11 = load ptr, ptr %7, align 8
  %12 = load i8, ptr %8, align 1
  %13 = load i32, ptr %9, align 4
  %14 = call zeroext i1 @control_proc_can_add_frame_even_if_complete(ptr noundef %10, ptr noundef %11, i8 noundef zeroext %12, i32 noundef %13)
  br i1 %14, label %16, label %15

15:                                               ; preds = %4
  store i1 false, ptr %5, align 1
  br label %24

16:                                               ; preds = %4
  %17 = load ptr, ptr %6, align 8
  %18 = getelementptr inbounds nuw %struct._packet_info, ptr %17, i32 0, i32 3
  %19 = load i32, ptr %18, align 4
  %20 = load ptr, ptr %7, align 8
  %21 = call zeroext i1 @control_proc_is_complete(i32 noundef %19, ptr noundef %20)
  br i1 %21, label %22, label %23

22:                                               ; preds = %16
  store i1 false, ptr %5, align 1
  br label %24

23:                                               ; preds = %16
  store i1 true, ptr %5, align 1
  br label %24

24:                                               ; preds = %23, %22, %15
  %25 = load i1, ptr %5, align 1
  ret i1 %25
}