; Function Attrs: mustprogress nofree norecurse nosync nounwind null_pointer_is_valid sspstrong willreturn memory(read, inaccessiblemem: none) uwtable
define internal fastcc zeroext i1 @control_proc_can_add_frame(ptr noundef readonly captures(none) %0, ptr noundef readonly captures(address_is_null) %1, i8 noundef zeroext range(i8 3, 60) %2, i32 noundef range(i32 1, 5) %3) unnamed_addr #10 {
  %.not.i = icmp eq ptr %1, null
  br i1 %.not.i, label %control_proc_can_add_frame_even_if_complete.exit.thread, label %5

5:                                                ; preds = %4
  %6 = getelementptr inbounds nuw i8, ptr %1, i64 20
  %7 = load i8, ptr %6, align 4
  %.not15.i = icmp eq i8 %7, %2
  br i1 %.not15.i, label %8, label %control_proc_can_add_frame_even_if_complete.exit.thread

8:                                                ; preds = %5
  %9 = add nsw i32 %3, -1
  %10 = zext nneg i32 %9 to i64
  %11 = getelementptr [5 x i32], ptr %1, i64 0, i64 %10
  %12 = load i32, ptr %11, align 4
  %13 = icmp eq i32 %12, 0
  br i1 %13, label %control_proc_can_add_frame_even_if_complete.exit.thread, label %14

14:                                               ; preds = %8
  %15 = getelementptr inbounds nuw i8, ptr %0, i64 80
  %16 = load ptr, ptr %15, align 8
  %17 = getelementptr inbounds nuw i8, ptr %16, i64 57
  %18 = load i16, ptr %17, align 1
  %19 = and i16 %18, 8
  %.not16.i = icmp eq i16 %19, 0
  %20 = zext nneg i32 %3 to i64
  %21 = getelementptr [5 x i32], ptr %1, i64 0, i64 %20
  %22 = load i32, ptr %21, align 4
  br i1 %.not16.i, label %23, label %24

23:                                               ; preds = %14
  %.not17.i = icmp eq i32 %22, 0
  br i1 %.not17.i, label %.control_proc_can_add_frame_even_if_complete.exit_crit_edge, label %control_proc_can_add_frame_even_if_complete.exit.thread

.control_proc_can_add_frame_even_if_complete.exit_crit_edge: ; preds = %23
  %.phi.trans.insert = getelementptr inbounds nuw i8, ptr %0, i64 20
  %.pre = load i32, ptr %.phi.trans.insert, align 4
  br label %control_proc_can_add_frame_even_if_complete.exit

24:                                               ; preds = %14
  %25 = getelementptr inbounds nuw i8, ptr %0, i64 20
  %26 = load i32, ptr %25, align 4
  %.not19.i = icmp eq i32 %22, %26
  br i1 %.not19.i, label %control_proc_can_add_frame_even_if_complete.exit, label %control_proc_can_add_frame_even_if_complete.exit.thread

control_proc_can_add_frame_even_if_complete.exit: ; preds = %.control_proc_can_add_frame_even_if_complete.exit_crit_edge, %24
  %27 = phi i32 [ %.pre, %.control_proc_can_add_frame_even_if_complete.exit_crit_edge ], [ %22, %24 ]
  %28 = getelementptr i8, ptr %1, i64 24
  %.val = load i32, ptr %28, align 4
  %.not.i6 = icmp eq i32 %.val, 0
  %29 = icmp ule i32 %27, %.val
  %or.cond.i.not = or i1 %.not.i6, %29
  br label %control_proc_can_add_frame_even_if_complete.exit.thread

control_proc_can_add_frame_even_if_complete.exit.thread: ; preds = %24, %23, %8, %5, %4, %control_proc_can_add_frame_even_if_complete.exit
  %.0 = phi i1 [ %or.cond.i.not, %control_proc_can_add_frame_even_if_complete.exit ], [ false, %4 ], [ false, %5 ], [ false, %8 ], [ false, %23 ], [ false, %24 ]
  ret i1 %.0
}